target datalayout = "e-m:e-p270:32:32-p271:32:32-p272:64:64-i64:64-i128:128-f80:128-n8:16:32:64-S128"
target triple = "x86_64-pc-linux-gnu"

%"struct.llvm::DWARFDebugLine::Row" = type <{ %"struct.llvm::object::SectionedAddress", i32, i16, i16, i32, i8, i8, i8, i8 }>
%"struct.llvm::object::SectionedAddress" = type { i64, i64 }

; Function Attrs: mustprogress nounwind uwtable
define dso_local void @_ZN4llvm14DWARFDebugLine3Row5resetEb(ptr noundef nonnull align 8 dereferenceable(31) %0, i1 noundef zeroext %1) #0 align 2 {
  %3 = alloca ptr, align 8
  %4 = alloca i8, align 1
  store ptr %0, ptr %3, align 8
  %5 = zext i1 %1 to i8
  store i8 %5, ptr %4, align 1
  %6 = load ptr, ptr %3, align 8
  %7 = getelementptr inbounds nuw %"struct.llvm::DWARFDebugLine::Row", ptr %6, i32 0, i32 0
  %8 = getelementptr inbounds nuw %"struct.llvm::object::SectionedAddress", ptr %7, i32 0, i32 0
  store i64 0, ptr %8, align 8
  %9 = getelementptr inbounds nuw %"struct.llvm::DWARFDebugLine::Row", ptr %6, i32 0, i32 0
  %10 = getelementptr inbounds nuw %"struct.llvm::object::SectionedAddress", ptr %9, i32 0, i32 1
  store i64 -1, ptr %10, align 8
  %11 = getelementptr inbounds nuw %"struct.llvm::DWARFDebugLine::Row", ptr %6, i32 0, i32 1
  store i32 1, ptr %11, align 8
  %12 = getelementptr inbounds nuw %"struct.llvm::DWARFDebugLine::Row", ptr %6, i32 0, i32 2
  store i16 0, ptr %12, align 4
  %13 = getelementptr inbounds nuw %"struct.llvm::DWARFDebugLine::Row", ptr %6, i32 0, i32 3
  store i16 1, ptr %13, align 2
  %14 = getelementptr inbounds nuw %"struct.llvm::DWARFDebugLine::Row", ptr %6, i32 0, i32 5
  store i8 0, ptr %14, align 4
  %15 = getelementptr inbounds nuw %"struct.llvm::DWARFDebugLine::Row", ptr %6, i32 0, i32 4
  store i32 0, ptr %15, align 8
  %16 = load i8, ptr %4, align 1
  %17 = trunc i8 %16 to i1
  %18 = zext i1 %17 to i8
  %19 = getelementptr inbounds nuw %"struct.llvm::DWARFDebugLine::Row", ptr %6, i32 0, i32 7
  %20 = load i8, ptr %19, align 2
  %21 = and i8 %18, 1
  %22 = and i8 %20, -2
  %23 = or i8 %22, %21
  store i8 %23, ptr %19, align 2
  %24 = getelementptr inbounds nuw %"struct.llvm::DWARFDebugLine::Row", ptr %6, i32 0, i32 6
  store i8 0, ptr %24, align 1
  %25 = getelementptr inbounds nuw %"struct.llvm::DWARFDebugLine::Row", ptr %6, i32 0, i32 7
  %26 = load i8, ptr %25, align 2
  %27 = and i8 %26, -3
  %28 = or i8 %27, 0
  store i8 %28, ptr %25, align 2
  %29 = getelementptr inbounds nuw %"struct.llvm::DWARFDebugLine::Row", ptr %6, i32 0, i32 7
  %30 = load i8, ptr %29, align 2
  %31 = and i8 %30, -5
  %32 = or i8 %31, 0
  store i8 %32, ptr %29, align 2
  %33 = getelementptr inbounds nuw %"struct.llvm::DWARFDebugLine::Row", ptr %6, i32 0, i32 7
  %34 = load i8, ptr %33, align 2
  %35 = and i8 %34, -9
  %36 = or i8 %35, 0
  store i8 %36, ptr %33, align 2
  %37 = getelementptr inbounds nuw %"struct.llvm::DWARFDebugLine::Row", ptr %6, i32 0, i32 7
  %38 = load i8, ptr %37, align 2
  %39 = and i8 %38, -17
  %40 = or i8 %39, 0
  store i8 %40, ptr %37, align 2
  ret void
}