; Function Attrs: mustprogress nofree norecurse nosync nounwind willreturn memory(argmem: readwrite) uwtable
define dso_local void @_ZN4llvm14DWARFDebugLine3Row5resetEb(ptr noundef nonnull align 8 captures(none) dereferenceable(31) initializes((0, 30)) %0, i1 noundef zeroext %1) local_unnamed_addr #1 align 2 {
  %3 = zext i1 %1 to i8
  store i64 0, ptr %0, align 8
  %4 = getelementptr inbounds nuw i8, ptr %0, i64 8
  store i64 -1, ptr %4, align 8
  %5 = getelementptr inbounds nuw i8, ptr %0, i64 16
  store i32 1, ptr %5, align 8
  %6 = getelementptr inbounds nuw i8, ptr %0, i64 20
  store i16 0, ptr %6, align 4
  %7 = getelementptr inbounds nuw i8, ptr %0, i64 22
  store i16 1, ptr %7, align 2
  %8 = getelementptr inbounds nuw i8, ptr %0, i64 28
  store i8 0, ptr %8, align 4
  %9 = getelementptr inbounds nuw i8, ptr %0, i64 24
  store i32 0, ptr %9, align 8
  %10 = getelementptr inbounds nuw i8, ptr %0, i64 30
  %11 = load i8, ptr %10, align 2
  %12 = and i8 %11, -32
  %13 = or disjoint i8 %12, %3
  %14 = getelementptr inbounds nuw i8, ptr %0, i64 29
  store i8 0, ptr %14, align 1
  store i8 %13, ptr %10, align 2
  ret void
}